; Function Attrs: mustprogress nofree norecurse nosync nounwind willreturn memory(argmem: readwrite) uwtable
define void @_ZN7rocksdb25DataBlockHashIndexBuilder5ResetEv(ptr noundef nonnull align 8 captures(none) dereferenceable(48) initializes((8, 17)) %0) local_unnamed_addr #2 align 2 personality ptr @__gxx_personality_v0 {
  %2 = getelementptr inbounds nuw i8, ptr %0, i64 8
  store double 0.000000e+00, ptr %2, align 8, !tbaa !36
  %3 = getelementptr inbounds nuw i8, ptr %0, i64 16
  store i8 1, ptr %3, align 8, !tbaa !4
  %4 = getelementptr inbounds nuw i8, ptr %0, i64 24
  %5 = load ptr, ptr %4, align 8, !tbaa !27
  %6 = getelementptr inbounds nuw i8, ptr %0, i64 32
  %7 = load ptr, ptr %6, align 8, !tbaa !21
  %.not.i.i = icmp eq ptr %7, %5
  br i1 %.not.i.i, label %_ZNSt6vectorISt4pairIjhESaIS1_EE5clearEv.exit, label %8

8:                                                ; preds = %1
  store ptr %5, ptr %6, align 8, !tbaa !21
  br label %_ZNSt6vectorISt4pairIjhESaIS1_EE5clearEv.exit

_ZNSt6vectorISt4pairIjhESaIS1_EE5clearEv.exit:    ; preds = %1, %8
  ret void
}